target datalayout = "e-m:e-p270:32:32-p271:32:32-p272:64:64-i64:64-i128:128-f80:128-n8:16:32:64-S128"
target triple = "x86_64-pc-linux-gnu"

%struct.FFV1Context = type { ptr, ptr, [256 x [2 x i64]], [8 x ptr], i32, i32, i32, i32, i32, i32, i32, i32, i32, i32, i64, i32, %struct.ProgressFrame, %struct.ProgressFrame, ptr, ptr, i32, i32, i32, ptr, i32, i32, [8 x [5 x [256 x i16]]], [8 x i32], [256 x i8], [8 x ptr], i32, i32, i32, i32, i32, i32, i32, i32, i32, i32, i32, i32, i32, i32, i32, i32, i32, i32, i32, ptr, ptr, i8 }
%struct.ProgressFrame = type { ptr, ptr }
%struct.PlaneContext = type { i32, i32, ptr, ptr }
%struct.FFV1SliceContext = type { ptr, ptr, i32, i32, i32, i32, i32, i32, i32, i32, i32, i32, i32, ptr, %struct.PutBitContext, %struct.RangeCoder, i32, %union.anon.0, [4 x i32], [4 x ptr], [4 x ptr], [4 x ptr], [4 x i32], [4 x i32], [4 x ptr] }
%struct.PutBitContext = type { i32, i32, ptr, ptr, ptr }
%struct.RangeCoder = type { i32, i32, i32, i32, [256 x i8], [256 x i8], ptr, ptr, ptr, i32 }
%union.anon.0 = type { %struct.anon.1 }
%struct.anon.1 = type { [256 x [2 x i64]], [8 x ptr] }
%struct.VlcState = type { i32, i16, i8, i8 }

; Function Attrs: cold nounwind optsize uwtable
define i32 @ff_ffv1_init_slice_state(ptr noundef %0, ptr noundef %1) #0 {
  %3 = alloca i32, align 4
  %4 = alloca ptr, align 8
  %5 = alloca ptr, align 8
  %6 = alloca i32, align 4
  %7 = alloca i32, align 4
  %8 = alloca ptr, align 8
  %9 = alloca i32, align 4
  store ptr %0, ptr %4, align 8, !tbaa !9
  store ptr %1, ptr %5, align 8, !tbaa !52
  call void @llvm.lifetime.start.p0(i64 4, ptr %6) #9
  call void @llvm.lifetime.start.p0(i64 4, ptr %7) #9
  store i32 0, ptr %6, align 4, !tbaa !45
  br label %10

10:                                               ; preds = %96, %2
  %11 = load i32, ptr %6, align 4, !tbaa !45
  %12 = load ptr, ptr %4, align 8, !tbaa !9
  %13 = getelementptr inbounds nuw %struct.FFV1Context, ptr %12, i32 0, i32 24
  %14 = load i32, ptr %13, align 8, !tbaa !53
  %15 = icmp slt i32 %11, %14
  br i1 %15, label %16, label %99

16:                                               ; preds = %10
  call void @llvm.lifetime.start.p0(i64 8, ptr %8) #9
  %17 = load ptr, ptr %5, align 8, !tbaa !52
  %18 = getelementptr inbounds nuw %struct.FFV1SliceContext, ptr %17, i32 0, i32 13
  %19 = load ptr, ptr %18, align 8, !tbaa !54
  %20 = load i32, ptr %6, align 4, !tbaa !45
  %21 = sext i32 %20 to i64
  %22 = getelementptr inbounds %struct.PlaneContext, ptr %19, i64 %21
  store ptr %22, ptr %8, align 8, !tbaa !48
  %23 = load ptr, ptr %4, align 8, !tbaa !9
  %24 = getelementptr inbounds nuw %struct.FFV1Context, ptr %23, i32 0, i32 25
  %25 = load i32, ptr %24, align 4, !tbaa !58
  %26 = icmp ne i32 %25, 0
  br i1 %26, label %27, label %47

27:                                               ; preds = %16
  %28 = load ptr, ptr %8, align 8, !tbaa !48
  %29 = getelementptr inbounds nuw %struct.PlaneContext, ptr %28, i32 0, i32 2
  %30 = load ptr, ptr %29, align 8, !tbaa !59
  %31 = icmp ne ptr %30, null
  br i1 %31, label %40, label %32

32:                                               ; preds = %27
  %33 = load ptr, ptr %8, align 8, !tbaa !48
  %34 = getelementptr inbounds nuw %struct.PlaneContext, ptr %33, i32 0, i32 1
  %35 = load i32, ptr %34, align 4, !tbaa !62
  %36 = sext i32 %35 to i64
  %37 = call ptr @av_malloc_array(i64 noundef %36, i64 noundef 32)
  %38 = load ptr, ptr %8, align 8, !tbaa !48
  %39 = getelementptr inbounds nuw %struct.PlaneContext, ptr %38, i32 0, i32 2
  store ptr %37, ptr %39, align 8, !tbaa !59
  br label %40

40:                                               ; preds = %32, %27
  %41 = load ptr, ptr %8, align 8, !tbaa !48
  %42 = getelementptr inbounds nuw %struct.PlaneContext, ptr %41, i32 0, i32 2
  %43 = load ptr, ptr %42, align 8, !tbaa !59
  %44 = icmp ne ptr %43, null
  br i1 %44, label %46, label %45

45:                                               ; preds = %40
  store i32 -12, ptr %3, align 4
  store i32 1, ptr %9, align 4
  br label %93

46:                                               ; preds = %40
  br label %92

47:                                               ; preds = %16
  %48 = load ptr, ptr %8, align 8, !tbaa !48
  %49 = getelementptr inbounds nuw %struct.PlaneContext, ptr %48, i32 0, i32 3
  %50 = load ptr, ptr %49, align 8, !tbaa !63
  %51 = icmp ne ptr %50, null
  br i1 %51, label %91, label %52

52:                                               ; preds = %47
  %53 = load ptr, ptr %8, align 8, !tbaa !48
  %54 = getelementptr inbounds nuw %struct.PlaneContext, ptr %53, i32 0, i32 1
  %55 = load i32, ptr %54, align 4, !tbaa !62
  %56 = sext i32 %55 to i64
  %57 = call noalias ptr @av_calloc(i64 noundef %56, i64 noundef 8)
  %58 = load ptr, ptr %8, align 8, !tbaa !48
  %59 = getelementptr inbounds nuw %struct.PlaneContext, ptr %58, i32 0, i32 3
  store ptr %57, ptr %59, align 8, !tbaa !63
  %60 = load ptr, ptr %8, align 8, !tbaa !48
  %61 = getelementptr inbounds nuw %struct.PlaneContext, ptr %60, i32 0, i32 3
  %62 = load ptr, ptr %61, align 8, !tbaa !63
  %63 = icmp ne ptr %62, null
  br i1 %63, label %65, label %64

64:                                               ; preds = %52
  store i32 -12, ptr %3, align 4
  store i32 1, ptr %9, align 4
  br label %93

65:                                               ; preds = %52
  store i32 0, ptr %7, align 4, !tbaa !45
  br label %66

66:                                               ; preds = %87, %65
  %67 = load i32, ptr %7, align 4, !tbaa !45
  %68 = load ptr, ptr %8, align 8, !tbaa !48
  %69 = getelementptr inbounds nuw %struct.PlaneContext, ptr %68, i32 0, i32 1
  %70 = load i32, ptr %69, align 4, !tbaa !62
  %71 = icmp slt i32 %67, %70
  br i1 %71, label %72, label %90

72:                                               ; preds = %66
  %73 = load ptr, ptr %8, align 8, !tbaa !48
  %74 = getelementptr inbounds nuw %struct.PlaneContext, ptr %73, i32 0, i32 3
  %75 = load ptr, ptr %74, align 8, !tbaa !63
  %76 = load i32, ptr %7, align 4, !tbaa !45
  %77 = sext i32 %76 to i64
  %78 = getelementptr inbounds %struct.VlcState, ptr %75, i64 %77
  %79 = getelementptr inbounds nuw %struct.VlcState, ptr %78, i32 0, i32 0
  store i32 4, ptr %79, align 4, !tbaa !64
  %80 = load ptr, ptr %8, align 8, !tbaa !48
  %81 = getelementptr inbounds nuw %struct.PlaneContext, ptr %80, i32 0, i32 3
  %82 = load ptr, ptr %81, align 8, !tbaa !63
  %83 = load i32, ptr %7, align 4, !tbaa !45
  %84 = sext i32 %83 to i64
  %85 = getelementptr inbounds %struct.VlcState, ptr %82, i64 %84
  %86 = getelementptr inbounds nuw %struct.VlcState, ptr %85, i32 0, i32 3
  store i8 1, ptr %86, align 1, !tbaa !67
  br label %87

87:                                               ; preds = %72
  %88 = load i32, ptr %7, align 4, !tbaa !45
  %89 = add nsw i32 %88, 1
  store i32 %89, ptr %7, align 4, !tbaa !45
  br label %66, !llvm.loop !68

90:                                               ; preds = %66
  br label %91

91:                                               ; preds = %90, %47
  br label %92

92:                                               ; preds = %91, %46
  store i32 0, ptr %9, align 4
  br label %93

93:                                               ; preds = %92, %64, %45
  call void @llvm.lifetime.end.p0(i64 8, ptr %8) #9
  %94 = load i32, ptr %9, align 4
  switch i32 %94, label %143 [
    i32 0, label %95
  ]

95:                                               ; preds = %93
  br label %96

96:                                               ; preds = %95
  %97 = load i32, ptr %6, align 4, !tbaa !45
  %98 = add nsw i32 %97, 1
  store i32 %98, ptr %6, align 4, !tbaa !45
  br label %10, !llvm.loop !69

99:                                               ; preds = %10
  %100 = load ptr, ptr %4, align 8, !tbaa !9
  %101 = getelementptr inbounds nuw %struct.FFV1Context, ptr %100, i32 0, i32 25
  %102 = load i32, ptr %101, align 4, !tbaa !58
  %103 = icmp eq i32 %102, 2
  br i1 %103, label %104, label %142

104:                                              ; preds = %99
  store i32 1, ptr %6, align 4, !tbaa !45
  br label %105

105:                                              ; preds = %138, %104
  %106 = load i32, ptr %6, align 4, !tbaa !45
  %107 = icmp slt i32 %106, 256
  br i1 %107, label %108, label %141

108:                                              ; preds = %105
  %109 = load ptr, ptr %4, align 8, !tbaa !9
  %110 = getelementptr inbounds nuw %struct.FFV1Context, ptr %109, i32 0, i32 28
  %111 = load i32, ptr %6, align 4, !tbaa !45
  %112 = sext i32 %111 to i64
  %113 = getelementptr inbounds [256 x i8], ptr %110, i64 0, i64 %112
  %114 = load i8, ptr %113, align 1, !tbaa !47
  %115 = load ptr, ptr %5, align 8, !tbaa !52
  %116 = getelementptr inbounds nuw %struct.FFV1SliceContext, ptr %115, i32 0, i32 15
  %117 = getelementptr inbounds nuw %struct.RangeCoder, ptr %116, i32 0, i32 5
  %118 = load i32, ptr %6, align 4, !tbaa !45
  %119 = sext i32 %118 to i64
  %120 = getelementptr inbounds [256 x i8], ptr %117, i64 0, i64 %119
  store i8 %114, ptr %120, align 1, !tbaa !47
  %121 = load ptr, ptr %5, align 8, !tbaa !52
  %122 = getelementptr inbounds nuw %struct.FFV1SliceContext, ptr %121, i32 0, i32 15
  %123 = getelementptr inbounds nuw %struct.RangeCoder, ptr %122, i32 0, i32 5
  %124 = load i32, ptr %6, align 4, !tbaa !45
  %125 = sext i32 %124 to i64
  %126 = getelementptr inbounds [256 x i8], ptr %123, i64 0, i64 %125
  %127 = load i8, ptr %126, align 1, !tbaa !47
  %128 = zext i8 %127 to i32
  %129 = sub nsw i32 256, %128
  %130 = trunc i32 %129 to i8
  %131 = load ptr, ptr %5, align 8, !tbaa !52
  %132 = getelementptr inbounds nuw %struct.FFV1SliceContext, ptr %131, i32 0, i32 15
  %133 = getelementptr inbounds nuw %struct.RangeCoder, ptr %132, i32 0, i32 4
  %134 = load i32, ptr %6, align 4, !tbaa !45
  %135 = sub nsw i32 256, %134
  %136 = sext i32 %135 to i64
  %137 = getelementptr inbounds [256 x i8], ptr %133, i64 0, i64 %136
  store i8 %130, ptr %137, align 1, !tbaa !47
  br label %138

138:                                              ; preds = %108
  %139 = load i32, ptr %6, align 4, !tbaa !45
  %140 = add nsw i32 %139, 1
  store i32 %140, ptr %6, align 4, !tbaa !45
  br label %105, !llvm.loop !70

141:                                              ; preds = %105
  br label %142

142:                                              ; preds = %141, %99
  store i32 0, ptr %3, align 4
  store i32 1, ptr %9, align 4
  br label %143

143:                                              ; preds = %142, %93
  call void @llvm.lifetime.end.p0(i64 4, ptr %7) #9
  call void @llvm.lifetime.end.p0(i64 4, ptr %6) #9
  %144 = load i32, ptr %3, align 4
  ret i32 %144
}