; Function Attrs: cold nounwind optsize uwtable
define range(i32 -12, 1) i32 @ff_ffv1_init_slice_state(ptr noundef readonly captures(none) %0, ptr noundef captures(none) %1) local_unnamed_addr #2 {
  %3 = getelementptr inbounds nuw i8, ptr %0, i64 4304
  %4 = load i32, ptr %3, align 8, !tbaa !43
  %5 = icmp sgt i32 %4, 0
  br i1 %5, label %.lr.ph46, label %._crit_edge

.lr.ph46:                                         ; preds = %2
  %6 = getelementptr inbounds nuw i8, ptr %1, i64 64
  %7 = getelementptr inbounds nuw i8, ptr %0, i64 4308
  br label %8

8:                                                ; preds = %.lr.ph46, %.critedge
  %indvars.iv50 = phi i64 [ 0, %.lr.ph46 ], [ %indvars.iv.next51, %.critedge ]
  %9 = load ptr, ptr %6, align 8, !tbaa !44
  %10 = getelementptr inbounds nuw %struct.PlaneContext, ptr %9, i64 %indvars.iv50
  %11 = load i32, ptr %7, align 4, !tbaa !49
  %.not = icmp eq i32 %11, 0
  br i1 %.not, label %20, label %12

12:                                               ; preds = %8
  %13 = getelementptr inbounds nuw i8, ptr %10, i64 8
  %14 = load ptr, ptr %13, align 8, !tbaa !50
  %.not39 = icmp eq ptr %14, null
  br i1 %.not39, label %15, label %.critedge

15:                                               ; preds = %12
  %16 = getelementptr inbounds nuw i8, ptr %10, i64 4
  %17 = load i32, ptr %16, align 4, !tbaa !53
  %18 = sext i32 %17 to i64
  %19 = tail call ptr @av_malloc_array(i64 noundef %18, i64 noundef 32) #12
  store ptr %19, ptr %13, align 8, !tbaa !50
  %.not40 = icmp eq ptr %19, null
  br i1 %.not40, label %.loopexit, label %.critedge

20:                                               ; preds = %8
  %21 = getelementptr inbounds nuw i8, ptr %10, i64 16
  %22 = load ptr, ptr %21, align 8, !tbaa !54
  %.not37 = icmp eq ptr %22, null
  br i1 %.not37, label %23, label %.critedge

23:                                               ; preds = %20
  %24 = getelementptr inbounds nuw i8, ptr %10, i64 4
  %25 = load i32, ptr %24, align 4, !tbaa !53
  %26 = sext i32 %25 to i64
  %27 = tail call noalias ptr @av_calloc(i64 noundef %26, i64 noundef 8) #12
  store ptr %27, ptr %21, align 8, !tbaa !54
  %.not38 = icmp eq ptr %27, null
  br i1 %.not38, label %.loopexit, label %.preheader42

.preheader42:                                     ; preds = %23
  %28 = load i32, ptr %24, align 4, !tbaa !53
  %29 = icmp sgt i32 %28, 0
  br i1 %29, label %.lr.ph.preheader, label %.critedge

.lr.ph.preheader:                                 ; preds = %.preheader42
  %wide.trip.count = zext nneg i32 %28 to i64
  br label %.lr.ph

.lr.ph:                                           ; preds = %.lr.ph.preheader, %.lr.ph
  %indvars.iv = phi i64 [ 0, %.lr.ph.preheader ], [ %indvars.iv.next, %.lr.ph ]
  %30 = getelementptr inbounds nuw %struct.VlcState, ptr %27, i64 %indvars.iv
  store i32 4, ptr %30, align 4, !tbaa !55
  %31 = getelementptr inbounds nuw %struct.VlcState, ptr %27, i64 %indvars.iv, i32 3
  store i8 1, ptr %31, align 1, !tbaa !58
  %indvars.iv.next = add nuw nsw i64 %indvars.iv, 1
  %exitcond.not = icmp eq i64 %indvars.iv.next, %wide.trip.count
  br i1 %exitcond.not, label %.critedge, label %.lr.ph, !llvm.loop !59

.critedge:                                        ; preds = %.lr.ph, %.preheader42, %12, %20, %15
  %indvars.iv.next51 = add nuw nsw i64 %indvars.iv50, 1
  %32 = load i32, ptr %3, align 8, !tbaa !43
  %33 = sext i32 %32 to i64
  %34 = icmp slt i64 %indvars.iv.next51, %33
  br i1 %34, label %8, label %._crit_edge, !llvm.loop !60

._crit_edge:                                      ; preds = %.critedge, %2
  %35 = getelementptr inbounds nuw i8, ptr %0, i64 4308
  %36 = load i32, ptr %35, align 4, !tbaa !49
  %37 = icmp eq i32 %36, 2
  br i1 %37, label %.preheader, label %.loopexit

.preheader:                                       ; preds = %._crit_edge
  %38 = getelementptr inbounds nuw i8, ptr %0, i64 24824
  %39 = getelementptr inbounds nuw i8, ptr %1, i64 376
  %40 = getelementptr inbounds nuw i8, ptr %1, i64 120
  br label %41

41:                                               ; preds = %.preheader, %41
  %indvars.iv53 = phi i64 [ 1, %.preheader ], [ %indvars.iv.next54, %41 ]
  %42 = getelementptr inbounds nuw [256 x i8], ptr %38, i64 0, i64 %indvars.iv53
  %43 = load i8, ptr %42, align 1, !tbaa !61
  %44 = getelementptr inbounds nuw [256 x i8], ptr %39, i64 0, i64 %indvars.iv53
  store i8 %43, ptr %44, align 1, !tbaa !61
  %45 = sub i8 0, %43
  %46 = sub nuw nsw i64 256, %indvars.iv53
  %47 = getelementptr inbounds nuw [256 x i8], ptr %40, i64 0, i64 %46
  store i8 %45, ptr %47, align 1, !tbaa !61
  %indvars.iv.next54 = add nuw nsw i64 %indvars.iv53, 1
  %exitcond56.not = icmp eq i64 %indvars.iv.next54, 256
  br i1 %exitcond56.not, label %.loopexit, label %41, !llvm.loop !62

.loopexit:                                        ; preds = %15, %23, %41, %._crit_edge
  %.2 = phi i32 [ 0, %._crit_edge ], [ 0, %41 ], [ -12, %23 ], [ -12, %15 ]
  ret i32 %.2
}